target datalayout = "e-m:e-p270:32:32-p271:32:32-p272:64:64-i64:64-i128:128-f80:128-n8:16:32:64-S128"
target triple = "x86_64-pc-linux-gnu"

%struct.rb_data_type_struct = type { ptr, %struct.anon.12, ptr, ptr, i64 }
%struct.anon.12 = type { ptr, ptr, ptr, ptr, [1 x ptr] }
%struct.rb_process_status = type { i32, i32, i32 }

@rb_process_status_type = internal constant %struct.rb_data_type_struct { ptr @.str.172, %struct.anon.12 { ptr null, ptr inttoptr (i64 -1 to ptr), ptr null, ptr null, [1 x ptr] zeroinitializer }, ptr null, ptr null, i64 35 }, align 8
@id_pid = internal global i64 0, align 8
@ruby_static_id_status = external global i64, align 8

; Function Attrs: inlinehint nounwind sspstrong willreturn memory(none) uwtable
define internal zeroext i1 @RB_FIXNUM_P(i64 noundef %0) #4 {
  %2 = alloca i64, align 8
  store i64 %0, ptr %2, align 8, !tbaa !35
  %3 = load i64, ptr %2, align 8, !tbaa !35
  %4 = and i64 %3, 1
  %5 = icmp ne i64 %4, 0
  ret i1 %5
}

; Function Attrs: inlinehint nounwind sspstrong uwtable
define internal i32 @rb_num2int_inline(i64 noundef %0) #1 {
  %2 = alloca i64, align 8
  %3 = alloca i64, align 8
  store i64 %0, ptr %2, align 8, !tbaa !35
  call void @llvm.lifetime.start.p0(i64 8, ptr %3) #27
  %4 = load i64, ptr %2, align 8, !tbaa !35
  %5 = call zeroext i1 @RB_FIXNUM_P(i64 noundef %4) #28
  br i1 %5, label %6, label %9

6:                                                ; preds = %1
  %7 = load i64, ptr %2, align 8, !tbaa !35
  %8 = call i64 @rb_fix2int(i64 noundef %7)
  store i64 %8, ptr %3, align 8, !tbaa !35
  br label %12

9:                                                ; preds = %1
  %10 = load i64, ptr %2, align 8, !tbaa !35
  %11 = call i64 @rb_num2int(i64 noundef %10)
  store i64 %11, ptr %3, align 8, !tbaa !35
  br label %12

12:                                               ; preds = %9, %6
  %13 = load i64, ptr %3, align 8, !tbaa !35
  %14 = trunc i64 %13 to i32
  call void @llvm.lifetime.end.p0(i64 8, ptr %3) #27
  ret i32 %14
}

; Function Attrs: inlinehint nounwind sspstrong willreturn memory(none) uwtable
define internal zeroext i1 @RB_NIL_P(i64 noundef %0) #4 {
  %2 = alloca i64, align 8
  store i64 %0, ptr %2, align 8, !tbaa !35
  %3 = load i64, ptr %2, align 8, !tbaa !35
  %4 = icmp eq i64 %3, 4
  ret i1 %4
}

; Function Attrs: nounwind sspstrong uwtable
define internal i64 @process_status_load(i64 noundef %0, i64 noundef %1) #0 {
  %3 = alloca i64, align 8
  %4 = alloca i64, align 8
  %5 = alloca ptr, align 8
  %6 = alloca i64, align 8
  %7 = alloca i64, align 8
  store i64 %0, ptr %3, align 8, !tbaa !35
  store i64 %1, ptr %4, align 8, !tbaa !35
  call void @llvm.lifetime.start.p0(i64 8, ptr %5) #27
  %8 = load i64, ptr %3, align 8, !tbaa !35
  %9 = call ptr @rb_check_typeddata(i64 noundef %8, ptr noundef @rb_process_status_type)
  store ptr %9, ptr %5, align 8, !tbaa !36
  call void @llvm.lifetime.start.p0(i64 8, ptr %6) #27
  %10 = load i64, ptr %4, align 8, !tbaa !35
  %11 = load i64, ptr @ruby_static_id_status, align 8, !tbaa !35
  %12 = call i64 @rb_attr_get(i64 noundef %10, i64 noundef %11)
  store i64 %12, ptr %6, align 8, !tbaa !35
  call void @llvm.lifetime.start.p0(i64 8, ptr %7) #27
  %13 = load i64, ptr %4, align 8, !tbaa !35
  %14 = load i64, ptr @id_pid, align 8, !tbaa !35
  %15 = call i64 @rb_attr_get(i64 noundef %13, i64 noundef %14)
  store i64 %15, ptr %7, align 8, !tbaa !35
  %16 = load i64, ptr %7, align 8, !tbaa !35
  %17 = call zeroext i1 @RB_NIL_P(i64 noundef %16) #28
  br i1 %17, label %18, label %19

18:                                               ; preds = %2
  br label %22

19:                                               ; preds = %2
  %20 = load i64, ptr %7, align 8, !tbaa !35
  %21 = call i32 @rb_num2int_inline(i64 noundef %20)
  br label %22

22:                                               ; preds = %19, %18
  %23 = phi i32 [ 0, %18 ], [ %21, %19 ]
  %24 = load ptr, ptr %5, align 8, !tbaa !36
  %25 = getelementptr inbounds nuw %struct.rb_process_status, ptr %24, i32 0, i32 0
  store i32 %23, ptr %25, align 4, !tbaa !38
  %26 = load i64, ptr %6, align 8, !tbaa !35
  %27 = call zeroext i1 @RB_NIL_P(i64 noundef %26) #28
  br i1 %27, label %28, label %29

28:                                               ; preds = %22
  br label %32

29:                                               ; preds = %22
  %30 = load i64, ptr %6, align 8, !tbaa !35
  %31 = call i32 @rb_num2int_inline(i64 noundef %30)
  br label %32

32:                                               ; preds = %29, %28
  %33 = phi i32 [ 0, %28 ], [ %31, %29 ]
  %34 = load ptr, ptr %5, align 8, !tbaa !36
  %35 = getelementptr inbounds nuw %struct.rb_process_status, ptr %34, i32 0, i32 1
  store i32 %33, ptr %35, align 4, !tbaa !40
  %36 = load i64, ptr %3, align 8, !tbaa !35
  call void @llvm.lifetime.end.p0(i64 8, ptr %7) #27
  call void @llvm.lifetime.end.p0(i64 8, ptr %6) #27
  call void @llvm.lifetime.end.p0(i64 8, ptr %5) #27
  ret i64 %36
}