; Function Attrs: nounwind sspstrong uwtable
define internal noundef i64 @process_status_load(i64 noundef returned %0, i64 noundef %1) #1 {
  %3 = tail call ptr @rb_check_typeddata(i64 noundef %0, ptr noundef nonnull @rb_process_status_type) #27
  %4 = load i64, ptr @ruby_static_id_status, align 8, !tbaa !43
  %5 = tail call i64 @rb_attr_get(i64 noundef %1, i64 noundef %4) #27
  %6 = load i64, ptr @id_pid, align 8, !tbaa !43
  %7 = tail call i64 @rb_attr_get(i64 noundef %1, i64 noundef %6) #27
  %8 = icmp eq i64 %7, 4
  br i1 %8, label %16, label %9

9:                                                ; preds = %2
  %10 = and i64 %7, 1
  %.not.i = icmp eq i64 %10, 0
  br i1 %.not.i, label %13, label %11

11:                                               ; preds = %9
  %12 = tail call i64 @rb_fix2int(i64 noundef %7) #27
  br label %rb_num2int_inline.exit

13:                                               ; preds = %9
  %14 = tail call i64 @rb_num2int(i64 noundef %7) #27
  br label %rb_num2int_inline.exit

rb_num2int_inline.exit:                           ; preds = %11, %13
  %.0.i = phi i64 [ %12, %11 ], [ %14, %13 ]
  %15 = trunc i64 %.0.i to i32
  br label %16

16:                                               ; preds = %2, %rb_num2int_inline.exit
  %17 = phi i32 [ %15, %rb_num2int_inline.exit ], [ 0, %2 ]
  store i32 %17, ptr %3, align 4, !tbaa !49
  %18 = icmp eq i64 %5, 4
  br i1 %18, label %26, label %19

19:                                               ; preds = %16
  %20 = and i64 %5, 1
  %.not.i9 = icmp eq i64 %20, 0
  br i1 %.not.i9, label %23, label %21

21:                                               ; preds = %19
  %22 = tail call i64 @rb_fix2int(i64 noundef %5) #27
  br label %rb_num2int_inline.exit11

23:                                               ; preds = %19
  %24 = tail call i64 @rb_num2int(i64 noundef %5) #27
  br label %rb_num2int_inline.exit11

rb_num2int_inline.exit11:                         ; preds = %21, %23
  %.0.i10 = phi i64 [ %22, %21 ], [ %24, %23 ]
  %25 = trunc i64 %.0.i10 to i32
  br label %26

26:                                               ; preds = %16, %rb_num2int_inline.exit11
  %27 = phi i32 [ %25, %rb_num2int_inline.exit11 ], [ 0, %16 ]
  %28 = getelementptr inbounds nuw i8, ptr %3, i64 4
  store i32 %27, ptr %28, align 4, !tbaa !51
  ret i64 %0
}